; Function Attrs: nounwind uwtable
define ptr @l_Lean_ofExcept___at_Lean_evalConst___spec__1___rarg(ptr noundef %0, ptr noundef %1, ptr readnone captures(none) %2, ptr noundef %3) #0 {
  %5 = ptrtoint ptr %3 to i64
  %6 = and i64 %5, 1
  %.not.i42 = icmp eq i64 %6, 0
  br i1 %.not.i42, label %10, label %7

7:                                                ; preds = %4
  %8 = lshr i64 %5, 1
  %9 = trunc i64 %8 to i32
  br label %lean_obj_tag.exit

10:                                               ; preds = %4
  %11 = getelementptr i8, ptr %3, i64 4
  %.val.i = load i32, ptr %11, align 4
  %12 = lshr i32 %.val.i, 24
  br label %lean_obj_tag.exit

lean_obj_tag.exit:                                ; preds = %7, %10
  %.0.i = phi i32 [ %9, %7 ], [ %12, %10 ]
  %13 = icmp eq i32 %.0.i, 0
  br i1 %13, label %14, label %41

14:                                               ; preds = %lean_obj_tag.exit
  %15 = getelementptr inbounds nuw i8, ptr %3, i64 8
  %16 = load ptr, ptr %15, align 8, !tbaa !10
  %17 = ptrtoint ptr %16 to i64
  %18 = and i64 %17, 1
  %.not59 = icmp eq i64 %18, 0
  br i1 %.not59, label %19, label %lean_inc.exit26

19:                                               ; preds = %14
  %.val.i43 = load i32, ptr %16, align 4, !tbaa !4
  %20 = icmp sgt i32 %.val.i43, 0
  br i1 %20, label %21, label %23, !prof !9

21:                                               ; preds = %19
  %22 = add nuw i32 %.val.i43, 1
  store i32 %22, ptr %16, align 4, !tbaa !4
  br label %lean_inc.exit26

23:                                               ; preds = %19
  %.not.i44 = icmp eq i32 %.val.i43, 0
  br i1 %.not.i44, label %lean_inc.exit26, label %24

24:                                               ; preds = %23
  tail call void @lean_inc_ref_cold(ptr noundef nonnull %16) #4
  br label %lean_inc.exit26

lean_inc.exit26:                                  ; preds = %24, %23, %21, %14
  br i1 %.not.i42, label %25, label %lean_dec.exit31

25:                                               ; preds = %lean_inc.exit26
  %26 = load i32, ptr %3, align 4, !tbaa !4
  %27 = icmp sgt i32 %26, 1
  br i1 %27, label %28, label %30, !prof !9

28:                                               ; preds = %25
  %29 = add nsw i32 %26, -1
  store i32 %29, ptr %3, align 4, !tbaa !4
  br label %lean_dec.exit31

30:                                               ; preds = %25
  %.not.i = icmp eq i32 %26, 0
  br i1 %.not.i, label %lean_dec.exit31, label %31

31:                                               ; preds = %30
  tail call void @lean_dec_ref_cold(ptr noundef nonnull %3) #4
  br label %lean_dec.exit31

lean_dec.exit31:                                  ; preds = %31, %30, %28, %lean_inc.exit26
  %32 = tail call ptr @l_Lean_stringToMessageData(ptr noundef %16) #4
  br i1 %.not59, label %33, label %lean_dec.exit30

33:                                               ; preds = %lean_dec.exit31
  %34 = load i32, ptr %16, align 4, !tbaa !4
  %35 = icmp sgt i32 %34, 1
  br i1 %35, label %36, label %38, !prof !9

36:                                               ; preds = %33
  %37 = add nsw i32 %34, -1
  store i32 %37, ptr %16, align 4, !tbaa !4
  br label %lean_dec.exit30

38:                                               ; preds = %33
  %.not.i32 = icmp eq i32 %34, 0
  br i1 %.not.i32, label %lean_dec.exit30, label %39

39:                                               ; preds = %38
  tail call void @lean_dec_ref_cold(ptr noundef nonnull %16) #4
  br label %lean_dec.exit30

lean_dec.exit30:                                  ; preds = %39, %38, %36, %lean_dec.exit31
  %40 = tail call ptr @l_Lean_throwError___rarg(ptr noundef %0, ptr noundef %1, ptr noundef %32) #4
  br label %105

41:                                               ; preds = %lean_obj_tag.exit
  %42 = ptrtoint ptr %1 to i64
  %43 = and i64 %42, 1
  %.not = icmp eq i64 %43, 0
  br i1 %.not, label %44, label %lean_dec.exit29

44:                                               ; preds = %41
  %45 = load i32, ptr %1, align 4, !tbaa !4
  %46 = icmp sgt i32 %45, 1
  br i1 %46, label %47, label %49, !prof !9

47:                                               ; preds = %44
  %48 = add nsw i32 %45, -1
  store i32 %48, ptr %1, align 4, !tbaa !4
  br label %lean_dec.exit29

49:                                               ; preds = %44
  %.not.i34 = icmp eq i32 %45, 0
  br i1 %.not.i34, label %lean_dec.exit29, label %50

50:                                               ; preds = %49
  tail call void @lean_dec_ref_cold(ptr noundef nonnull %1) #4
  br label %lean_dec.exit29

lean_dec.exit29:                                  ; preds = %50, %49, %47, %41
  %51 = getelementptr inbounds nuw i8, ptr %3, i64 8
  %52 = load ptr, ptr %51, align 8, !tbaa !10
  %53 = ptrtoint ptr %52 to i64
  %54 = and i64 %53, 1
  %.not54 = icmp eq i64 %54, 0
  br i1 %.not54, label %55, label %lean_inc.exit25

55:                                               ; preds = %lean_dec.exit29
  %.val.i45 = load i32, ptr %52, align 4, !tbaa !4
  %56 = icmp sgt i32 %.val.i45, 0
  br i1 %56, label %57, label %59, !prof !9

57:                                               ; preds = %55
  %58 = add nuw i32 %.val.i45, 1
  store i32 %58, ptr %52, align 4, !tbaa !4
  br label %lean_inc.exit25

59:                                               ; preds = %55
  %.not.i46 = icmp eq i32 %.val.i45, 0
  br i1 %.not.i46, label %lean_inc.exit25, label %60

60:                                               ; preds = %59
  tail call void @lean_inc_ref_cold(ptr noundef nonnull %52) #4
  br label %lean_inc.exit25

lean_inc.exit25:                                  ; preds = %60, %59, %57, %lean_dec.exit29
  br i1 %.not.i42, label %61, label %lean_dec.exit28

61:                                               ; preds = %lean_inc.exit25
  %62 = load i32, ptr %3, align 4, !tbaa !4
  %63 = icmp sgt i32 %62, 1
  br i1 %63, label %64, label %66, !prof !9

64:                                               ; preds = %61
  %65 = add nsw i32 %62, -1
  store i32 %65, ptr %3, align 4, !tbaa !4
  br label %lean_dec.exit28

66:                                               ; preds = %61
  %.not.i36 = icmp eq i32 %62, 0
  br i1 %.not.i36, label %lean_dec.exit28, label %67

67:                                               ; preds = %66
  tail call void @lean_dec_ref_cold(ptr noundef nonnull %3) #4
  br label %lean_dec.exit28

lean_dec.exit28:                                  ; preds = %67, %66, %64, %lean_inc.exit25
  %68 = getelementptr inbounds nuw i8, ptr %0, i64 8
  %69 = load ptr, ptr %68, align 8, !tbaa !10
  %70 = ptrtoint ptr %69 to i64
  %71 = and i64 %70, 1
  %.not56 = icmp eq i64 %71, 0
  br i1 %.not56, label %72, label %lean_inc.exit24

72:                                               ; preds = %lean_dec.exit28
  %.val.i48 = load i32, ptr %69, align 4, !tbaa !4
  %73 = icmp sgt i32 %.val.i48, 0
  br i1 %73, label %74, label %76, !prof !9

74:                                               ; preds = %72
  %75 = add nuw i32 %.val.i48, 1
  store i32 %75, ptr %69, align 4, !tbaa !4
  br label %lean_inc.exit24

76:                                               ; preds = %72
  %.not.i49 = icmp eq i32 %.val.i48, 0
  br i1 %.not.i49, label %lean_inc.exit24, label %77

77:                                               ; preds = %76
  tail call void @lean_inc_ref_cold(ptr noundef nonnull %69) #4
  br label %lean_inc.exit24

lean_inc.exit24:                                  ; preds = %77, %76, %74, %lean_dec.exit28
  %78 = ptrtoint ptr %0 to i64
  %79 = and i64 %78, 1
  %.not57 = icmp eq i64 %79, 0
  br i1 %.not57, label %80, label %lean_dec.exit27

80:                                               ; preds = %lean_inc.exit24
  %81 = load i32, ptr %0, align 4, !tbaa !4
  %82 = icmp sgt i32 %81, 1
  br i1 %82, label %83, label %85, !prof !9

83:                                               ; preds = %80
  %84 = add nsw i32 %81, -1
  store i32 %84, ptr %0, align 4, !tbaa !4
  br label %lean_dec.exit27

85:                                               ; preds = %80
  %.not.i38 = icmp eq i32 %81, 0
  br i1 %.not.i38, label %lean_dec.exit27, label %86

86:                                               ; preds = %85
  tail call void @lean_dec_ref_cold(ptr noundef nonnull %0) #4
  br label %lean_dec.exit27

lean_dec.exit27:                                  ; preds = %86, %85, %83, %lean_inc.exit24
  %87 = getelementptr inbounds nuw i8, ptr %69, i64 16
  %88 = load ptr, ptr %87, align 8, !tbaa !10
  %89 = ptrtoint ptr %88 to i64
  %90 = and i64 %89, 1
  %.not58 = icmp eq i64 %90, 0
  br i1 %.not58, label %91, label %lean_inc.exit

91:                                               ; preds = %lean_dec.exit27
  %.val.i51 = load i32, ptr %88, align 4, !tbaa !4
  %92 = icmp sgt i32 %.val.i51, 0
  br i1 %92, label %93, label %95, !prof !9

93:                                               ; preds = %91
  %94 = add nuw i32 %.val.i51, 1
  store i32 %94, ptr %88, align 4, !tbaa !4
  br label %lean_inc.exit

95:                                               ; preds = %91
  %.not.i52 = icmp eq i32 %.val.i51, 0
  br i1 %.not.i52, label %lean_inc.exit, label %96

96:                                               ; preds = %95
  tail call void @lean_inc_ref_cold(ptr noundef nonnull %88) #4
  br label %lean_inc.exit

lean_inc.exit:                                    ; preds = %96, %95, %93, %lean_dec.exit27
  br i1 %.not56, label %97, label %lean_dec.exit

97:                                               ; preds = %lean_inc.exit
  %98 = load i32, ptr %69, align 4, !tbaa !4
  %99 = icmp sgt i32 %98, 1
  br i1 %99, label %100, label %102, !prof !9

100:                                              ; preds = %97
  %101 = add nsw i32 %98, -1
  store i32 %101, ptr %69, align 4, !tbaa !4
  br label %lean_dec.exit

102:                                              ; preds = %97
  %.not.i40 = icmp eq i32 %98, 0
  br i1 %.not.i40, label %lean_dec.exit, label %103

103:                                              ; preds = %102
  tail call void @lean_dec_ref_cold(ptr noundef nonnull %69) #4
  br label %lean_dec.exit

lean_dec.exit:                                    ; preds = %103, %102, %100, %lean_inc.exit
  %104 = tail call ptr @lean_apply_2(ptr noundef %88, ptr noundef nonnull inttoptr (i64 1 to ptr), ptr noundef %52) #4
  br label %105

105:                                              ; preds = %lean_dec.exit, %lean_dec.exit30
  %.0 = phi ptr [ %40, %lean_dec.exit30 ], [ %104, %lean_dec.exit ]
  ret ptr %.0
}